; Function Attrs: nounwind uwtable
define internal range(i32 -21, 903) i32 @cvNlsLSolveSensStg(ptr noundef readonly captures(none) %0, ptr noundef %1) #0 {
  %3 = icmp eq ptr %1, null
  br i1 %3, label %4, label %5

4:                                                ; preds = %2
  tail call void (ptr, i32, i32, ptr, ptr, ptr, ...) @cvProcessError(ptr noundef null, i32 noundef -21, i32 noundef 285, ptr noundef nonnull @__func__.cvNlsLSolveSensStg, ptr noundef nonnull @.str, ptr noundef nonnull @.str.1) #3
  br label %.loopexit

5:                                                ; preds = %2
  %6 = load ptr, ptr %0, align 8, !tbaa !40
  %7 = load ptr, ptr %6, align 8, !tbaa !43
  %8 = getelementptr inbounds nuw i8, ptr %1, i64 2000
  %9 = getelementptr inbounds nuw i8, ptr %1, i64 144
  %10 = load i32, ptr %9, align 8, !tbaa !31
  %11 = icmp sgt i32 %10, 0
  br i1 %11, label %.lr.ph, label %.loopexit

.lr.ph:                                           ; preds = %5
  %12 = getelementptr inbounds nuw i8, ptr %1, i64 752
  %13 = getelementptr inbounds nuw i8, ptr %1, i64 448
  %14 = getelementptr inbounds nuw i8, ptr %1, i64 472
  br label %19

15:                                               ; preds = %30
  %indvars.iv.next = add nuw nsw i64 %indvars.iv, 1
  %16 = load i32, ptr %9, align 8, !tbaa !31
  %17 = sext i32 %16 to i64
  %18 = icmp slt i64 %indvars.iv.next, %17
  br i1 %18, label %19, label %.loopexit

19:                                               ; preds = %.lr.ph, %15
  %indvars.iv = phi i64 [ 0, %.lr.ph ], [ %indvars.iv.next, %15 ]
  %20 = load ptr, ptr %8, align 8, !tbaa !63
  %21 = getelementptr inbounds nuw ptr, ptr %7, i64 %indvars.iv
  %22 = load ptr, ptr %21, align 8, !tbaa !39
  %23 = load ptr, ptr %12, align 8, !tbaa !38
  %24 = getelementptr inbounds nuw ptr, ptr %23, i64 %indvars.iv
  %25 = load ptr, ptr %24, align 8, !tbaa !39
  %26 = load ptr, ptr %13, align 8, !tbaa !48
  %27 = load ptr, ptr %14, align 8, !tbaa !49
  %28 = tail call i32 %20(ptr noundef nonnull %1, ptr noundef %22, ptr noundef %25, ptr noundef %26, ptr noundef %27) #3
  %29 = icmp slt i32 %28, 0
  br i1 %29, label %.loopexit, label %30

30:                                               ; preds = %19
  %.not = icmp eq i32 %28, 0
  br i1 %.not, label %15, label %.loopexit

.loopexit:                                        ; preds = %19, %30, %15, %5, %4
  %.0 = phi i32 [ -21, %4 ], [ 0, %5 ], [ -7, %19 ], [ 902, %30 ], [ 0, %15 ]
  ret i32 %.0
}